; Function Attrs: nofree norecurse nosync nounwind memory(argmem: readwrite) uwtable
define range(i32 -140, -2147483648) i32 @GetSet_ex(ptr noundef readonly captures(address_is_null) %0, ptr noundef captures(none) %1, ptr noundef writeonly captures(none) %2, i32 noundef %3, i32 noundef %4) local_unnamed_addr #6 {
  %6 = load i32, ptr %1, align 4, !tbaa !22
  %.not63.i = icmp eq ptr %0, null
  br i1 %.not63.i, label %GetASNHeader_ex.exit, label %7

7:                                                ; preds = %5
  %8 = add i32 %6, 1
  %9 = icmp ugt i32 %8, %3
  br i1 %9, label %GetASNHeader_ex.exit, label %GetASNTag.exit.i

GetASNTag.exit.i:                                 ; preds = %7
  %10 = zext i32 %6 to i64
  %11 = getelementptr inbounds nuw i8, ptr %0, i64 %10
  %12 = load i8, ptr %11, align 1, !tbaa !3
  %.not18.i = icmp eq i8 %12, 49
  br i1 %.not18.i, label %13, label %GetASNHeader_ex.exit

13:                                               ; preds = %GetASNTag.exit.i
  %14 = add i32 %6, 2
  %15 = icmp ugt i32 %14, %3
  br i1 %15, label %GetASNHeader_ex.exit, label %16

16:                                               ; preds = %13
  %17 = zext i32 %8 to i64
  %18 = getelementptr inbounds nuw i8, ptr %0, i64 %17
  %19 = load i8, ptr %18, align 1, !tbaa !3
  %20 = zext i8 %19 to i32
  %21 = icmp slt i8 %19, 0
  br i1 %21, label %22, label %49

22:                                               ; preds = %16
  %23 = and i32 %20, 127
  %24 = icmp eq i8 %19, -128
  br i1 %24, label %33, label %25

25:                                               ; preds = %22
  %26 = icmp eq i32 %23, 1
  br i1 %26, label %.thread63.i.i, label %27

27:                                               ; preds = %25
  %28 = icmp samesign ugt i32 %23, 4
  br i1 %28, label %GetASNHeader_ex.exit, label %29

29:                                               ; preds = %27
  %30 = shl nuw nsw i32 %23, 3
  %31 = add nsw i32 %30, -8
  %32 = shl nuw nsw i32 1, %31
  br label %33

33:                                               ; preds = %29, %22
  %.0.i.i = phi i32 [ %32, %29 ], [ 0, %22 ]
  %34 = add i32 %23, %14
  %35 = icmp ugt i32 %34, %3
  br i1 %35, label %GetASNHeader_ex.exit, label %.preheader.i.i

.thread63.i.i:                                    ; preds = %25
  %36 = add i32 %6, 3
  %37 = icmp ugt i32 %36, %3
  br i1 %37, label %GetASNHeader_ex.exit, label %.lr.ph.preheader.i.i

.preheader.i.i:                                   ; preds = %33
  %.not57.i.i = icmp eq i32 %23, 0
  br i1 %.not57.i.i, label %._crit_edge.i.i, label %.lr.ph.preheader.i.i

.lr.ph.preheader.i.i:                             ; preds = %.preheader.i.i, %.thread63.i.i
  %.06568.i.i = phi i32 [ %.0.i.i, %.preheader.i.i ], [ 128, %.thread63.i.i ]
  %38 = phi i32 [ %34, %.preheader.i.i ], [ %36, %.thread63.i.i ]
  br label %.lr.ph.i.i

.lr.ph.i.i:                                       ; preds = %.lr.ph.i.i, %.lr.ph.preheader.i.i
  %.03560.i.i = phi i32 [ %39, %.lr.ph.i.i ], [ %23, %.lr.ph.preheader.i.i ]
  %.159.i.i = phi i32 [ %40, %.lr.ph.i.i ], [ %14, %.lr.ph.preheader.i.i ]
  %.13958.i.i = phi i32 [ %46, %.lr.ph.i.i ], [ 0, %.lr.ph.preheader.i.i ]
  %39 = add nsw i32 %.03560.i.i, -1
  %40 = add i32 %.159.i.i, 1
  %41 = zext i32 %.159.i.i to i64
  %42 = getelementptr inbounds nuw i8, ptr %0, i64 %41
  %43 = load i8, ptr %42, align 1, !tbaa !3
  %44 = shl i32 %.13958.i.i, 8
  %45 = zext i8 %43 to i32
  %46 = or disjoint i32 %44, %45
  %.not.i.i = icmp eq i32 %39, 0
  br i1 %.not.i.i, label %._crit_edge.i.i, label %.lr.ph.i.i, !llvm.loop !35

._crit_edge.i.i:                                  ; preds = %.lr.ph.i.i, %.preheader.i.i
  %.06569.i.i = phi i32 [ %.0.i.i, %.preheader.i.i ], [ %.06568.i.i, %.lr.ph.i.i ]
  %.139.lcssa.i.i = phi i32 [ 0, %.preheader.i.i ], [ %46, %.lr.ph.i.i ]
  %.1.lcssa.i.i = phi i32 [ %14, %.preheader.i.i ], [ %38, %.lr.ph.i.i ]
  %47 = icmp sgt i32 %.139.lcssa.i.i, -1
  %48 = icmp sge i32 %.139.lcssa.i.i, %.06569.i.i
  %or.cond55.i.i = select i1 %47, i1 %48, i1 false
  br i1 %or.cond55.i.i, label %49, label %GetASNHeader_ex.exit

49:                                               ; preds = %._crit_edge.i.i, %16
  %.240.i.i = phi i32 [ %20, %16 ], [ %.139.lcssa.i.i, %._crit_edge.i.i ]
  %.2.i.i = phi i32 [ %14, %16 ], [ %.1.lcssa.i.i, %._crit_edge.i.i ]
  %.not48.i.i = icmp ne i32 %4, 0
  %50 = add i32 %.2.i.i, %.240.i.i
  %51 = icmp ugt i32 %50, %3
  %or.cond.i.i = and i1 %.not48.i.i, %51
  br i1 %or.cond.i.i, label %GetASNHeader_ex.exit, label %select.unfold.i

select.unfold.i:                                  ; preds = %49
  store i32 %.240.i.i, ptr %2, align 4, !tbaa !22
  store i32 %.2.i.i, ptr %1, align 4, !tbaa !22
  br label %GetASNHeader_ex.exit

GetASNHeader_ex.exit:                             ; preds = %5, %7, %GetASNTag.exit.i, %13, %27, %33, %.thread63.i.i, %._crit_edge.i.i, %49, %select.unfold.i
  %.4.i = phi i32 [ %.240.i.i, %select.unfold.i ], [ -140, %.thread63.i.i ], [ -140, %27 ], [ -140, %33 ], [ -140, %._crit_edge.i.i ], [ -140, %49 ], [ -140, %13 ], [ -140, %GetASNTag.exit.i ], [ -140, %7 ], [ -140, %5 ]
  ret i32 %.4.i
}